target datalayout = "e-m:e-p270:32:32-p271:32:32-p272:64:64-i64:64-i128:128-f80:128-n8:16:32:64-S128"
target triple = "x86_64-pc-linux-gnu"

; Function Attrs: nounwind uwtable
define internal zeroext i8 @clip_pixel(i32 noundef %0) #0 {
  %2 = alloca i32, align 4
  store i32 %0, ptr %2, align 4
  %3 = load i32, ptr %2, align 4
  %4 = icmp sgt i32 %3, 255
  br i1 %4, label %5, label %6

5:                                                ; preds = %1
  br label %14

6:                                                ; preds = %1
  %7 = load i32, ptr %2, align 4
  %8 = icmp slt i32 %7, 0
  br i1 %8, label %9, label %10

9:                                                ; preds = %6
  br label %12

10:                                               ; preds = %6
  %11 = load i32, ptr %2, align 4
  br label %12

12:                                               ; preds = %10, %9
  %13 = phi i32 [ 0, %9 ], [ %11, %10 ]
  br label %14

14:                                               ; preds = %12, %5
  %15 = phi i32 [ 255, %5 ], [ %13, %12 ]
  %16 = trunc i32 %15 to i8
  ret i8 %16
}

; Function Attrs: nounwind uwtable
define internal i32 @vert_scalar_product(ptr noundef %0, i64 noundef %1, ptr noundef %2) #0 {
  %4 = alloca ptr, align 8
  %5 = alloca i64, align 8
  %6 = alloca ptr, align 8
  %7 = alloca i32, align 4
  %8 = alloca i32, align 4
  store ptr %0, ptr %4, align 8
  store i64 %1, ptr %5, align 8
  store ptr %2, ptr %6, align 8
  store i32 0, ptr %7, align 4
  store i32 0, ptr %8, align 4
  br label %9

9:                                                ; preds = %30, %3
  %10 = load i32, ptr %8, align 4
  %11 = icmp slt i32 %10, 8
  br i1 %11, label %12, label %33

12:                                               ; preds = %9
  %13 = load ptr, ptr %4, align 8
  %14 = load i32, ptr %8, align 4
  %15 = sext i32 %14 to i64
  %16 = load i64, ptr %5, align 8
  %17 = mul nsw i64 %15, %16
  %18 = getelementptr inbounds i8, ptr %13, i64 %17
  %19 = load i8, ptr %18, align 1
  %20 = zext i8 %19 to i32
  %21 = load ptr, ptr %6, align 8
  %22 = load i32, ptr %8, align 4
  %23 = sext i32 %22 to i64
  %24 = getelementptr inbounds i16, ptr %21, i64 %23
  %25 = load i16, ptr %24, align 2
  %26 = sext i16 %25 to i32
  %27 = mul nsw i32 %20, %26
  %28 = load i32, ptr %7, align 4
  %29 = add nsw i32 %28, %27
  store i32 %29, ptr %7, align 4
  br label %30

30:                                               ; preds = %12
  %31 = load i32, ptr %8, align 4
  %32 = add nsw i32 %31, 1
  store i32 %32, ptr %8, align 4
  br label %9, !llvm.loop !16

33:                                               ; preds = %9
  %34 = load i32, ptr %7, align 4
  ret i32 %34
}

; Function Attrs: nounwind uwtable
define internal void @convolve_vert(ptr noundef %0, i64 noundef %1, ptr noundef %2, i64 noundef %3, ptr noundef %4, i32 noundef %5, i32 noundef %6, i32 noundef %7, i32 noundef %8) #0 {
  %10 = alloca ptr, align 8
  %11 = alloca i64, align 8
  %12 = alloca ptr, align 8
  %13 = alloca i64, align 8
  %14 = alloca ptr, align 8
  %15 = alloca i32, align 4
  %16 = alloca i32, align 4
  %17 = alloca i32, align 4
  %18 = alloca i32, align 4
  %19 = alloca i32, align 4
  %20 = alloca i32, align 4
  %21 = alloca i32, align 4
  %22 = alloca ptr, align 8
  %23 = alloca ptr, align 8
  %24 = alloca i32, align 4
  store ptr %0, ptr %10, align 8
  store i64 %1, ptr %11, align 8
  store ptr %2, ptr %12, align 8
  store i64 %3, ptr %13, align 8
  store ptr %4, ptr %14, align 8
  store i32 %5, ptr %15, align 4
  store i32 %6, ptr %16, align 4
  store i32 %7, ptr %17, align 4
  store i32 %8, ptr %18, align 4
  %25 = load i64, ptr %11, align 8
  %26 = mul nsw i64 %25, 3
  %27 = load ptr, ptr %10, align 8
  %28 = sub i64 0, %26
  %29 = getelementptr inbounds i8, ptr %27, i64 %28
  store ptr %29, ptr %10, align 8
  store i32 0, ptr %19, align 4
  br label %30

30:                                               ; preds = %79, %9
  %31 = load i32, ptr %19, align 4
  %32 = load i32, ptr %17, align 4
  %33 = icmp slt i32 %31, %32
  br i1 %33, label %34, label %82

34:                                               ; preds = %30
  %35 = load i32, ptr %15, align 4
  store i32 %35, ptr %20, align 4
  store i32 0, ptr %21, align 4
  br label %36

36:                                               ; preds = %71, %34
  %37 = load i32, ptr %21, align 4
  %38 = load i32, ptr %18, align 4
  %39 = icmp slt i32 %37, %38
  br i1 %39, label %40, label %74

40:                                               ; preds = %36
  %41 = load ptr, ptr %10, align 8
  %42 = load i32, ptr %20, align 4
  %43 = ashr i32 %42, 4
  %44 = sext i32 %43 to i64
  %45 = load i64, ptr %11, align 8
  %46 = mul nsw i64 %44, %45
  %47 = getelementptr inbounds i8, ptr %41, i64 %46
  store ptr %47, ptr %22, align 8
  %48 = load ptr, ptr %14, align 8
  %49 = load i32, ptr %20, align 4
  %50 = and i32 %49, 15
  %51 = sext i32 %50 to i64
  %52 = getelementptr inbounds [8 x i16], ptr %48, i64 %51
  %53 = getelementptr inbounds [8 x i16], ptr %52, i64 0, i64 0
  store ptr %53, ptr %23, align 8
  %54 = load ptr, ptr %22, align 8
  %55 = load i64, ptr %11, align 8
  %56 = load ptr, ptr %23, align 8
  %57 = call i32 @vert_scalar_product(ptr noundef %54, i64 noundef %55, ptr noundef %56)
  store i32 %57, ptr %24, align 4
  %58 = load i32, ptr %24, align 4
  %59 = add nsw i32 %58, 64
  %60 = ashr i32 %59, 7
  %61 = call zeroext i8 @clip_pixel(i32 noundef %60)
  %62 = load ptr, ptr %12, align 8
  %63 = load i32, ptr %21, align 4
  %64 = sext i32 %63 to i64
  %65 = load i64, ptr %13, align 8
  %66 = mul nsw i64 %64, %65
  %67 = getelementptr inbounds i8, ptr %62, i64 %66
  store i8 %61, ptr %67, align 1
  %68 = load i32, ptr %16, align 4
  %69 = load i32, ptr %20, align 4
  %70 = add nsw i32 %69, %68
  store i32 %70, ptr %20, align 4
  br label %71

71:                                               ; preds = %40
  %72 = load i32, ptr %21, align 4
  %73 = add nsw i32 %72, 1
  store i32 %73, ptr %21, align 4
  br label %36, !llvm.loop !7

74:                                               ; preds = %36
  %75 = load ptr, ptr %10, align 8
  %76 = getelementptr inbounds i8, ptr %75, i32 1
  store ptr %76, ptr %10, align 8
  %77 = load ptr, ptr %12, align 8
  %78 = getelementptr inbounds i8, ptr %77, i32 1
  store ptr %78, ptr %12, align 8
  br label %79

79:                                               ; preds = %74
  %80 = load i32, ptr %19, align 4
  %81 = add nsw i32 %80, 1
  store i32 %81, ptr %19, align 4
  br label %30, !llvm.loop !8

82:                                               ; preds = %30
  ret void
}

; Function Attrs: nounwind uwtable
define internal i32 @get_filter_offset(ptr noundef %0, ptr noundef %1) #0 {
  %3 = alloca ptr, align 8
  %4 = alloca ptr, align 8
  store ptr %0, ptr %3, align 8
  store ptr %1, ptr %4, align 8
  %5 = load ptr, ptr %3, align 8
  %6 = ptrtoint ptr %5 to i64
  %7 = inttoptr i64 %6 to ptr
  %8 = load ptr, ptr %4, align 8
  %9 = ptrtoint ptr %7 to i64
  %10 = ptrtoint ptr %8 to i64
  %11 = sub i64 %9, %10
  %12 = sdiv exact i64 %11, 16
  %13 = trunc i64 %12 to i32
  ret i32 %13
}

; Function Attrs: nounwind uwtable
define internal ptr @get_filter_base(ptr noundef %0) #0 {
  %2 = alloca ptr, align 8
  store ptr %0, ptr %2, align 8
  %3 = load ptr, ptr %2, align 8
  %4 = ptrtoint ptr %3 to i64
  %5 = and i64 %4, -256
  %6 = inttoptr i64 %5 to ptr
  ret ptr %6
}

; Function Attrs: nounwind uwtable
define hidden void @aom_convolve8_vert_c(ptr noundef %0, i64 noundef %1, ptr noundef %2, i64 noundef %3, ptr noundef %4, i32 noundef %5, ptr noundef %6, i32 noundef %7, i32 noundef %8, i32 noundef %9) #0 {
  %11 = alloca ptr, align 8
  %12 = alloca i64, align 8
  %13 = alloca ptr, align 8
  %14 = alloca i64, align 8
  %15 = alloca ptr, align 8
  %16 = alloca i32, align 4
  %17 = alloca ptr, align 8
  %18 = alloca i32, align 4
  %19 = alloca i32, align 4
  %20 = alloca i32, align 4
  %21 = alloca ptr, align 8
  %22 = alloca i32, align 4
  store ptr %0, ptr %11, align 8
  store i64 %1, ptr %12, align 8
  store ptr %2, ptr %13, align 8
  store i64 %3, ptr %14, align 8
  store ptr %4, ptr %15, align 8
  store i32 %5, ptr %16, align 4
  store ptr %6, ptr %17, align 8
  store i32 %7, ptr %18, align 4
  store i32 %8, ptr %19, align 4
  store i32 %9, ptr %20, align 4
  %23 = load ptr, ptr %17, align 8
  %24 = call ptr @get_filter_base(ptr noundef %23)
  store ptr %24, ptr %21, align 8
  %25 = load ptr, ptr %17, align 8
  %26 = load ptr, ptr %21, align 8
  %27 = call i32 @get_filter_offset(ptr noundef %25, ptr noundef %26)
  store i32 %27, ptr %22, align 4
  %28 = load ptr, ptr %11, align 8
  %29 = load i64, ptr %12, align 8
  %30 = load ptr, ptr %13, align 8
  %31 = load i64, ptr %14, align 8
  %32 = load ptr, ptr %21, align 8
  %33 = load i32, ptr %22, align 4
  %34 = load i32, ptr %18, align 4
  %35 = load i32, ptr %19, align 4
  %36 = load i32, ptr %20, align 4
  call void @convolve_vert(ptr noundef %28, i64 noundef %29, ptr noundef %30, i64 noundef %31, ptr noundef %32, i32 noundef %33, i32 noundef %34, i32 noundef %35, i32 noundef %36)
  ret void
}