; Function Attrs: nofree norecurse nosync nounwind memory(read, argmem: readwrite, inaccessiblemem: none) uwtable
define hidden void @aom_convolve8_vert_c(ptr nocapture noundef readonly %0, i64 noundef %1, ptr nocapture noundef writeonly %2, i64 noundef %3, ptr nocapture noundef readnone %4, i32 noundef %5, ptr noundef %6, i32 noundef %7, i32 noundef %8, i32 noundef %9) local_unnamed_addr #0 {
  %11 = ptrtoint ptr %6 to i64
  %12 = and i64 %11, -256
  %13 = inttoptr i64 %12 to ptr
  %14 = trunc i64 %11 to i32
  %15 = lshr i32 %14, 4
  %16 = and i32 %15, 15
  %17 = icmp sgt i32 %8, 0
  %18 = icmp sgt i32 %9, 0
  %or.cond.i = and i1 %17, %18
  br i1 %or.cond.i, label %.preheader.us.preheader.i, label %convolve_vert.exit

.preheader.us.preheader.i:                        ; preds = %10
  %.neg.i = mul i64 %1, -3
  %19 = getelementptr inbounds i8, ptr %0, i64 %.neg.i
  %wide.trip.count.i = zext nneg i32 %9 to i64
  br label %.preheader.us.i

.preheader.us.i:                                  ; preds = %._crit_edge.us.i, %.preheader.us.preheader.i
  %.032.us.i = phi ptr [ %46, %._crit_edge.us.i ], [ %19, %.preheader.us.preheader.i ]
  %.02431.us.i = phi ptr [ %47, %._crit_edge.us.i ], [ %2, %.preheader.us.preheader.i ]
  %.02530.us.i = phi i32 [ %48, %._crit_edge.us.i ], [ 0, %.preheader.us.preheader.i ]
  br label %20

20:                                               ; preds = %vert_scalar_product.exit.us.i, %.preheader.us.i
  %indvars.iv.i = phi i64 [ 0, %.preheader.us.i ], [ %indvars.iv.next.i, %vert_scalar_product.exit.us.i ]
  %.02728.us.i = phi i32 [ %16, %.preheader.us.i ], [ %45, %vert_scalar_product.exit.us.i ]
  %21 = ashr i32 %.02728.us.i, 4
  %22 = sext i32 %21 to i64
  %23 = mul nsw i64 %1, %22
  %24 = getelementptr inbounds i8, ptr %.032.us.i, i64 %23
  %25 = and i32 %.02728.us.i, 15
  %26 = zext nneg i32 %25 to i64
  %27 = getelementptr inbounds [8 x i16], ptr %13, i64 %26
  br label %28

28:                                               ; preds = %28, %20
  %indvars.iv.i.us.i = phi i64 [ 0, %20 ], [ %indvars.iv.next.i.us.i, %28 ]
  %.089.i.us.i = phi i32 [ 0, %20 ], [ %37, %28 ]
  %29 = mul nsw i64 %indvars.iv.i.us.i, %1
  %30 = getelementptr inbounds i8, ptr %24, i64 %29
  %31 = load i8, ptr %30, align 1
  %32 = zext i8 %31 to i32
  %33 = getelementptr inbounds i16, ptr %27, i64 %indvars.iv.i.us.i
  %34 = load i16, ptr %33, align 2
  %35 = sext i16 %34 to i32
  %36 = mul nsw i32 %35, %32
  %37 = add nsw i32 %36, %.089.i.us.i
  %indvars.iv.next.i.us.i = add nuw nsw i64 %indvars.iv.i.us.i, 1
  %exitcond.not.i.us.i = icmp eq i64 %indvars.iv.next.i.us.i, 8
  br i1 %exitcond.not.i.us.i, label %vert_scalar_product.exit.us.i, label %28, !llvm.loop !8

vert_scalar_product.exit.us.i:                    ; preds = %28
  %38 = add nsw i32 %37, 64
  %39 = ashr i32 %38, 7
  %40 = tail call i32 @llvm.smax.i32(i32 %39, i32 0)
  %41 = tail call i32 @llvm.umin.i32(i32 %40, i32 255)
  %42 = trunc nuw i32 %41 to i8
  %43 = mul nsw i64 %indvars.iv.i, %3
  %44 = getelementptr inbounds i8, ptr %.02431.us.i, i64 %43
  store i8 %42, ptr %44, align 1
  %45 = add nsw i32 %.02728.us.i, %7
  %indvars.iv.next.i = add nuw nsw i64 %indvars.iv.i, 1
  %exitcond.not.i = icmp eq i64 %indvars.iv.next.i, %wide.trip.count.i
  br i1 %exitcond.not.i, label %._crit_edge.us.i, label %20, !llvm.loop !9

._crit_edge.us.i:                                 ; preds = %vert_scalar_product.exit.us.i
  %46 = getelementptr inbounds i8, ptr %.032.us.i, i64 1
  %47 = getelementptr inbounds i8, ptr %.02431.us.i, i64 1
  %48 = add nuw nsw i32 %.02530.us.i, 1
  %exitcond36.not.i = icmp eq i32 %48, %8
  br i1 %exitcond36.not.i, label %convolve_vert.exit, label %.preheader.us.i, !llvm.loop !10

convolve_vert.exit:                               ; preds = %._crit_edge.us.i, %10
  ret void
}